target datalayout = "e-m:e-p270:32:32-p271:32:32-p272:64:64-i64:64-i128:128-f80:128-n8:16:32:64-S128"
target triple = "x86_64-pc-linux-gnu"

%struct._object = type { %union.anon, ptr }
%union.anon = type { i64 }
%struct.PySocketSockObject = type { %struct._object, i32, i32, i32, i32, ptr, i64, ptr }

@PyExc_OSError = external global ptr, align 8
@.str.558 = private unnamed_addr constant [36 x i8] c"getsockaddrlen: unknown BT protocol\00", align 1
@.str.559 = private unnamed_addr constant [27 x i8] c"getsockaddrlen: bad family\00", align 1

; Function Attrs: nounwind uwtable
define internal i32 @getsockaddrlen(ptr noundef %0, ptr noundef %1) #0 {
  %3 = alloca i32, align 4
  %4 = alloca ptr, align 8
  %5 = alloca ptr, align 8
  store ptr %0, ptr %4, align 8, !tbaa !8
  store ptr %1, ptr %5, align 8, !tbaa !50
  %6 = load ptr, ptr %4, align 8, !tbaa !8
  %7 = getelementptr inbounds nuw %struct.PySocketSockObject, ptr %6, i32 0, i32 2
  %8 = load i32, ptr %7, align 4, !tbaa !106
  switch i32 %8, label %44 [
    i32 1, label %9
    i32 16, label %11
    i32 42, label %13
    i32 40, label %15
    i32 21, label %17
    i32 2, label %18
    i32 10, label %20
    i32 31, label %22
    i32 17, label %36
    i32 30, label %38
    i32 29, label %40
    i32 38, label %42
  ]

9:                                                ; preds = %2
  %10 = load ptr, ptr %5, align 8, !tbaa !50
  store i32 110, ptr %10, align 4, !tbaa !15
  store i32 1, ptr %3, align 4
  br label %46

11:                                               ; preds = %2
  %12 = load ptr, ptr %5, align 8, !tbaa !50
  store i32 12, ptr %12, align 4, !tbaa !15
  store i32 1, ptr %3, align 4
  br label %46

13:                                               ; preds = %2
  %14 = load ptr, ptr %5, align 8, !tbaa !50
  store i32 12, ptr %14, align 4, !tbaa !15
  store i32 1, ptr %3, align 4
  br label %46

15:                                               ; preds = %2
  %16 = load ptr, ptr %5, align 8, !tbaa !50
  store i32 16, ptr %16, align 4, !tbaa !15
  store i32 1, ptr %3, align 4
  br label %46

17:                                               ; preds = %2
  br label %18

18:                                               ; preds = %2, %17
  %19 = load ptr, ptr %5, align 8, !tbaa !50
  store i32 16, ptr %19, align 4, !tbaa !15
  store i32 1, ptr %3, align 4
  br label %46

20:                                               ; preds = %2
  %21 = load ptr, ptr %5, align 8, !tbaa !50
  store i32 28, ptr %21, align 4, !tbaa !15
  store i32 1, ptr %3, align 4
  br label %46

22:                                               ; preds = %2
  %23 = load ptr, ptr %4, align 8, !tbaa !8
  %24 = getelementptr inbounds nuw %struct.PySocketSockObject, ptr %23, i32 0, i32 4
  %25 = load i32, ptr %24, align 4, !tbaa !109
  switch i32 %25, label %34 [
    i32 0, label %26
    i32 3, label %28
    i32 1, label %30
    i32 2, label %32
  ]

26:                                               ; preds = %22
  %27 = load ptr, ptr %5, align 8, !tbaa !50
  store i32 14, ptr %27, align 4, !tbaa !15
  store i32 1, ptr %3, align 4
  br label %46

28:                                               ; preds = %22
  %29 = load ptr, ptr %5, align 8, !tbaa !50
  store i32 10, ptr %29, align 4, !tbaa !15
  store i32 1, ptr %3, align 4
  br label %46

30:                                               ; preds = %22
  %31 = load ptr, ptr %5, align 8, !tbaa !50
  store i32 6, ptr %31, align 4, !tbaa !15
  store i32 1, ptr %3, align 4
  br label %46

32:                                               ; preds = %22
  %33 = load ptr, ptr %5, align 8, !tbaa !50
  store i32 8, ptr %33, align 4, !tbaa !15
  store i32 1, ptr %3, align 4
  br label %46

34:                                               ; preds = %22
  %35 = load ptr, ptr @PyExc_OSError, align 8, !tbaa !3
  call void @PyErr_SetString(ptr noundef %35, ptr noundef @.str.558)
  store i32 0, ptr %3, align 4
  br label %46

36:                                               ; preds = %2
  %37 = load ptr, ptr %5, align 8, !tbaa !50
  store i32 20, ptr %37, align 4, !tbaa !15
  store i32 1, ptr %3, align 4
  br label %46

38:                                               ; preds = %2
  %39 = load ptr, ptr %5, align 8, !tbaa !50
  store i32 16, ptr %39, align 4, !tbaa !15
  store i32 1, ptr %3, align 4
  br label %46

40:                                               ; preds = %2
  %41 = load ptr, ptr %5, align 8, !tbaa !50
  store i32 24, ptr %41, align 4, !tbaa !15
  store i32 1, ptr %3, align 4
  br label %46

42:                                               ; preds = %2
  %43 = load ptr, ptr %5, align 8, !tbaa !50
  store i32 88, ptr %43, align 4, !tbaa !15
  store i32 1, ptr %3, align 4
  br label %46

44:                                               ; preds = %2
  %45 = load ptr, ptr @PyExc_OSError, align 8, !tbaa !3
  call void @PyErr_SetString(ptr noundef %45, ptr noundef @.str.559)
  store i32 0, ptr %3, align 4
  br label %46

46:                                               ; preds = %44, %42, %40, %38, %36, %34, %32, %30, %28, %26, %20, %18, %15, %13, %11, %9
  %47 = load i32, ptr %3, align 4
  ret i32 %47
}