; Function Attrs: nounwind uwtable
define internal fastcc range(i32 0, 2) i32 @getsockaddrlen(ptr noundef readonly captures(none) %0, ptr noundef nonnull writeonly captures(none) %1) unnamed_addr #0 {
  %3 = getelementptr inbounds nuw i8, ptr %0, i64 20
  %4 = load i32, ptr %3, align 4, !tbaa !86
  switch i32 %4, label %24 [
    i32 1, label %5
    i32 16, label %6
    i32 42, label %7
    i32 40, label %8
    i32 21, label %9
    i32 2, label %9
    i32 10, label %10
    i32 31, label %11
    i32 17, label %20
    i32 30, label %21
    i32 29, label %22
    i32 38, label %23
  ]

5:                                                ; preds = %2
  store i32 110, ptr %1, align 4, !tbaa !35
  br label %26

6:                                                ; preds = %2
  store i32 12, ptr %1, align 4, !tbaa !35
  br label %26

7:                                                ; preds = %2
  store i32 12, ptr %1, align 4, !tbaa !35
  br label %26

8:                                                ; preds = %2
  store i32 16, ptr %1, align 4, !tbaa !35
  br label %26

9:                                                ; preds = %2, %2
  store i32 16, ptr %1, align 4, !tbaa !35
  br label %26

10:                                               ; preds = %2
  store i32 28, ptr %1, align 4, !tbaa !35
  br label %26

11:                                               ; preds = %2
  %12 = getelementptr inbounds nuw i8, ptr %0, i64 28
  %13 = load i32, ptr %12, align 4, !tbaa !88
  switch i32 %13, label %18 [
    i32 0, label %14
    i32 3, label %15
    i32 1, label %16
    i32 2, label %17
  ]

14:                                               ; preds = %11
  store i32 14, ptr %1, align 4, !tbaa !35
  br label %26

15:                                               ; preds = %11
  store i32 10, ptr %1, align 4, !tbaa !35
  br label %26

16:                                               ; preds = %11
  store i32 6, ptr %1, align 4, !tbaa !35
  br label %26

17:                                               ; preds = %11
  store i32 8, ptr %1, align 4, !tbaa !35
  br label %26

18:                                               ; preds = %11
  %19 = load ptr, ptr @PyExc_OSError, align 8, !tbaa !19
  tail call void @PyErr_SetString(ptr noundef %19, ptr noundef nonnull @.str.558) #13
  br label %26

20:                                               ; preds = %2
  store i32 20, ptr %1, align 4, !tbaa !35
  br label %26

21:                                               ; preds = %2
  store i32 16, ptr %1, align 4, !tbaa !35
  br label %26

22:                                               ; preds = %2
  store i32 24, ptr %1, align 4, !tbaa !35
  br label %26

23:                                               ; preds = %2
  store i32 88, ptr %1, align 4, !tbaa !35
  br label %26

24:                                               ; preds = %2
  %25 = load ptr, ptr @PyExc_OSError, align 8, !tbaa !19
  tail call void @PyErr_SetString(ptr noundef %25, ptr noundef nonnull @.str.559) #13
  br label %26

26:                                               ; preds = %24, %23, %22, %21, %20, %18, %17, %16, %15, %14, %10, %9, %8, %7, %6, %5
  %.0 = phi i32 [ 0, %24 ], [ 1, %23 ], [ 1, %22 ], [ 1, %21 ], [ 1, %20 ], [ 0, %18 ], [ 1, %17 ], [ 1, %16 ], [ 1, %15 ], [ 1, %14 ], [ 1, %10 ], [ 1, %9 ], [ 1, %8 ], [ 1, %7 ], [ 1, %6 ], [ 1, %5 ]
  ret i32 %.0
}